; Function Attrs: nounwind uwtable
define hidden void @zim_DOM_HTMLDocument_createEmpty(ptr nocapture noundef readonly %0, ptr noundef %1) local_unnamed_addr #0 {
  %3 = alloca ptr, align 8
  %4 = alloca i64, align 8
  store ptr @.str, ptr %3, align 8
  store i64 5, ptr %4, align 8
  %5 = getelementptr inbounds i8, ptr %0, i64 44
  %6 = load i32, ptr %5, align 4
  %7 = call i32 (i32, ptr, ...) @zend_parse_parameters(i32 noundef %6, ptr noundef nonnull @.str.1, ptr noundef nonnull %3, ptr noundef nonnull %4) #11
  %8 = icmp eq i32 %7, -1
  br i1 %8, label %9, label %12

9:                                                ; preds = %2
  %10 = load ptr, ptr getelementptr inbounds (%struct._zend_executor_globals, ptr @executor_globals, i64 0, i32 50), align 8
  %11 = icmp ne ptr %10, null
  call void @llvm.assume(i1 %11)
  br label %39

12:                                               ; preds = %2
  %13 = load i64, ptr %4, align 8
  %14 = icmp eq i64 %13, 0
  br i1 %14, label %lxb_encoding_data_by_name.exit.thread, label %15

15:                                               ; preds = %12
  %16 = load ptr, ptr %3, align 8
  %17 = call ptr @lexbor_shs_entry_get_lower_static(ptr noundef nonnull @lxb_encoding_res_shs_entities, ptr noundef %16, i64 noundef %13) #11
  %18 = icmp eq ptr %17, null
  br i1 %18, label %lxb_encoding_data_by_name.exit.thread, label %lxb_encoding_data_by_name.exit

lxb_encoding_data_by_name.exit:                   ; preds = %15
  %19 = getelementptr inbounds i8, ptr %17, i64 8
  %20 = load ptr, ptr %19, align 8
  %21 = icmp eq ptr %20, null
  br i1 %21, label %lxb_encoding_data_by_name.exit.thread, label %24

lxb_encoding_data_by_name.exit.thread:            ; preds = %15, %12, %lxb_encoding_data_by_name.exit
  call void (i32, ptr, ...) @zend_argument_value_error(i32 noundef 1, ptr noundef nonnull @.str.2) #11
  %22 = load ptr, ptr getelementptr inbounds (%struct._zend_executor_globals, ptr @executor_globals, i64 0, i32 50), align 8
  %23 = icmp ne ptr %22, null
  call void @llvm.assume(i1 %23)
  br label %39

24:                                               ; preds = %lxb_encoding_data_by_name.exit
  %25 = call ptr @htmlNewDocNoDtD(ptr noundef null, ptr noundef null) #11
  %26 = icmp eq ptr %25, null
  br i1 %26, label %36, label %27

27:                                               ; preds = %24
  %28 = load ptr, ptr %3, align 8
  %29 = call ptr @xmlStrdup(ptr noundef %28) #11
  %30 = getelementptr inbounds i8, ptr %25, i64 112
  store ptr %29, ptr %30, align 8
  %31 = load ptr, ptr @dom_html_document_class_entry, align 8
  %32 = call ptr @php_dom_instantiate_object_helper(ptr noundef %1, ptr noundef %31, ptr noundef nonnull %25, ptr noundef null) #11
  %33 = getelementptr inbounds i8, ptr %32, i64 8
  %34 = load ptr, ptr %33, align 8
  %35 = getelementptr inbounds i8, ptr %34, i64 28
  store i8 1, ptr %35, align 4
  br label %39

36:                                               ; preds = %24
  call void @php_dom_throw_error(i32 noundef 11, i32 noundef 1) #11
  %37 = load ptr, ptr getelementptr inbounds (%struct._zend_executor_globals, ptr @executor_globals, i64 0, i32 50), align 8
  %38 = icmp ne ptr %37, null
  call void @llvm.assume(i1 %38)
  br label %39

39:                                               ; preds = %36, %27, %lxb_encoding_data_by_name.exit.thread, %9
  ret void
}